target datalayout = "e-m:e-p270:32:32-p271:32:32-p272:64:64-i64:64-i128:128-f80:128-n8:16:32:64-S128"
target triple = "x86_64-pc-linux-gnu"

%struct.reassembly_table = type { ptr, ptr, ptr, ptr, ptr }
%struct.reassembly_table_functions = type { ptr, ptr, ptr, ptr, ptr, ptr }

@proto_register_websocket.ett = internal global [6 x ptr] [ptr @ett_ws, ptr @ett_ws_pl, ptr @ett_ws_mask, ptr @ett_ws_control_close, ptr @ett_ws_fragment, ptr @ett_ws_fragments], align 16
@.str.85 = private unnamed_addr constant [10 x i8] c"WebSocket\00", align 1
@.str.86 = private unnamed_addr constant [10 x i8] c"websocket\00", align 1
@proto_websocket = internal global i32 0, align 4
@.str.87 = private unnamed_addr constant [3 x i8] c"ws\00", align 1
@.str.88 = private unnamed_addr constant [21 x i8] c"WebSocket data frame\00", align 1
@heur_subdissector_list = internal global ptr null, align 8
@.str.89 = private unnamed_addr constant [8 x i8] c"ws.port\00", align 1
@.str.90 = private unnamed_addr constant [39 x i8] c"TCP port for protocols using WebSocket\00", align 1
@port_subdissector_table = internal global ptr null, align 8
@.str.91 = private unnamed_addr constant [12 x i8] c"ws.protocol\00", align 1
@.str.92 = private unnamed_addr constant [30 x i8] c"Negotiated WebSocket protocol\00", align 1
@protocol_subdissector_table = internal global ptr null, align 8
@ws_reassembly_table = internal global %struct.reassembly_table zeroinitializer, align 8
@addresses_reassembly_table_functions = external constant %struct.reassembly_table_functions, align 8
@.str.93 = private unnamed_addr constant [17 x i8] c"websocket_follow\00", align 1
@websocket_follow_tap = internal global i32 0, align 4
@websocket_handle = internal global ptr null, align 8
@.str.94 = private unnamed_addr constant [10 x i8] c"text_type\00", align 1
@.str.95 = private unnamed_addr constant [26 x i8] c"Dissect websocket text as\00", align 1
@.str.96 = private unnamed_addr constant [36 x i8] c"Select dissector for websocket text\00", align 1
@pref_text_type = internal global i32 0, align 4
@.str.97 = private unnamed_addr constant [11 x i8] c"decompress\00", align 1
@.str.98 = private unnamed_addr constant [45 x i8] c"Try to decompress permessage-deflate payload\00", align 1
@pref_decompress = internal global i8 1, align 1
@.str.99 = private unnamed_addr constant [17 x i8] c"max_unmasked_len\00", align 1
@.str.100 = private unnamed_addr constant [28 x i8] c"Max unmasked payload length\00", align 1
@.str.101 = private unnamed_addr constant [110 x i8] c"The default value is 256KB (1024x256) bytes. If the preference is too large, it may affect the parsing speed.\00", align 1
@pref_max_unmasked_len = internal global i32 262144, align 4

; Function Attrs: null_pointer_is_valid sspstrong uwtable
define hidden void @proto_register_websocket() #0 {
  %1 = alloca ptr, align 8
  %2 = alloca ptr, align 8
  call void @llvm.lifetime.start.p0(i64 8, ptr %1) #10
  call void @llvm.lifetime.start.p0(i64 8, ptr %2) #10
  %3 = call i32 @proto_register_protocol(ptr noundef @.str.85, ptr noundef @.str.85, ptr noundef @.str.86)
  store i32 %3, ptr @proto_websocket, align 4
  %4 = load i32, ptr @proto_websocket, align 4
  %5 = call ptr @register_heur_dissector_list_with_description(ptr noundef @.str.87, ptr noundef @.str.88, i32 noundef %4)
  store ptr %5, ptr @heur_subdissector_list, align 8
  %6 = load i32, ptr @proto_websocket, align 4
  %7 = call ptr @register_dissector_table(ptr noundef @.str.89, ptr noundef @.str.90, i32 noundef %6, i32 noundef 5, i32 noundef 1)
  store ptr %7, ptr @port_subdissector_table, align 8
  %8 = load i32, ptr @proto_websocket, align 4
  %9 = call ptr @register_dissector_table(ptr noundef @.str.91, ptr noundef @.str.92, i32 noundef %8, i32 noundef 26, i32 noundef 0)
  store ptr %9, ptr @protocol_subdissector_table, align 8
  call void @reassembly_table_register(ptr noundef @ws_reassembly_table, ptr noundef @addresses_reassembly_table_functions)
  %10 = call i32 @register_tap(ptr noundef @.str.93)
  store i32 %10, ptr @websocket_follow_tap, align 4
  %11 = load i32, ptr @proto_websocket, align 4
  call void @register_follow_stream(i32 noundef %11, ptr noundef @.str.93, ptr noundef @tcp_follow_conv_filter, ptr noundef @tcp_follow_index_filter, ptr noundef @tcp_follow_address_filter, ptr noundef @tcp_port_to_display, ptr noundef @follow_tvb_tap_listener, ptr noundef @get_tcp_stream_count, ptr noundef null)
  %12 = load i32, ptr @proto_websocket, align 4
  call void @proto_register_field_array(i32 noundef %12, ptr noundef @proto_register_websocket.hf, i32 noundef 28)
  call void @proto_register_subtree_array(ptr noundef @proto_register_websocket.ett, i32 noundef 6)
  %13 = load i32, ptr @proto_websocket, align 4
  %14 = call ptr @expert_register_protocol(i32 noundef %13)
  store ptr %14, ptr %2, align 8
  %15 = load ptr, ptr %2, align 8
  call void @expert_register_field_array(ptr noundef %15, ptr noundef @proto_register_websocket.ei, i32 noundef 3)
  %16 = load i32, ptr @proto_websocket, align 4
  %17 = call ptr @register_dissector(ptr noundef @.str.86, ptr noundef @dissect_websocket, i32 noundef %16)
  store ptr %17, ptr @websocket_handle, align 8
  %18 = load i32, ptr @proto_websocket, align 4
  %19 = call ptr @prefs_register_protocol(i32 noundef %18, ptr noundef null)
  store ptr %19, ptr %1, align 8
  %20 = load ptr, ptr %1, align 8
  call void @prefs_register_enum_preference(ptr noundef %20, ptr noundef @.str.94, ptr noundef @.str.95, ptr noundef @.str.96, ptr noundef @pref_text_type, ptr noundef @proto_register_websocket.text_types, i1 noundef zeroext false)
  %21 = load ptr, ptr %1, align 8
  call void @prefs_register_bool_preference(ptr noundef %21, ptr noundef @.str.97, ptr noundef @.str.98, ptr noundef null, ptr noundef @pref_decompress)
  %22 = load ptr, ptr %1, align 8
  call void @prefs_register_uint_preference(ptr noundef %22, ptr noundef @.str.99, ptr noundef @.str.100, ptr noundef @.str.101, i32 noundef 10, ptr noundef @pref_max_unmasked_len)
  call void @llvm.lifetime.end.p0(i64 8, ptr %2) #10
  call void @llvm.lifetime.end.p0(i64 8, ptr %1) #10
  ret void
}