; Function Attrs: null_pointer_is_valid sspstrong uwtable
define hidden void @proto_register_websocket() local_unnamed_addr #0 {
  %1 = tail call i32 @proto_register_protocol(ptr noundef nonnull @.str.85, ptr noundef nonnull @.str.85, ptr noundef nonnull @.str.86)
  store i32 %1, ptr @proto_websocket, align 4
  %2 = tail call ptr @register_heur_dissector_list_with_description(ptr noundef nonnull @.str.87, ptr noundef nonnull @.str.88, i32 noundef %1)
  store ptr %2, ptr @heur_subdissector_list, align 8
  %3 = load i32, ptr @proto_websocket, align 4
  %4 = tail call ptr @register_dissector_table(ptr noundef nonnull @.str.89, ptr noundef nonnull @.str.90, i32 noundef %3, i32 noundef 5, i32 noundef 1)
  store ptr %4, ptr @port_subdissector_table, align 8
  %5 = load i32, ptr @proto_websocket, align 4
  %6 = tail call ptr @register_dissector_table(ptr noundef nonnull @.str.91, ptr noundef nonnull @.str.92, i32 noundef %5, i32 noundef 26, i32 noundef 0)
  store ptr %6, ptr @protocol_subdissector_table, align 8
  tail call void @reassembly_table_register(ptr noundef nonnull @ws_reassembly_table, ptr noundef nonnull @addresses_reassembly_table_functions)
  %7 = tail call i32 @register_tap(ptr noundef nonnull @.str.93)
  store i32 %7, ptr @websocket_follow_tap, align 4
  %8 = load i32, ptr @proto_websocket, align 4
  tail call void @register_follow_stream(i32 noundef %8, ptr noundef nonnull @.str.93, ptr noundef nonnull @tcp_follow_conv_filter, ptr noundef nonnull @tcp_follow_index_filter, ptr noundef nonnull @tcp_follow_address_filter, ptr noundef nonnull @tcp_port_to_display, ptr noundef nonnull @follow_tvb_tap_listener, ptr noundef nonnull @get_tcp_stream_count, ptr noundef null)
  %9 = load i32, ptr @proto_websocket, align 4
  tail call void @proto_register_field_array(i32 noundef %9, ptr noundef nonnull @proto_register_websocket.hf, i32 noundef 28)
  tail call void @proto_register_subtree_array(ptr noundef nonnull @proto_register_websocket.ett, i32 noundef 6)
  %10 = load i32, ptr @proto_websocket, align 4
  %11 = tail call ptr @expert_register_protocol(i32 noundef %10)
  tail call void @expert_register_field_array(ptr noundef %11, ptr noundef nonnull @proto_register_websocket.ei, i32 noundef 3)
  %12 = load i32, ptr @proto_websocket, align 4
  %13 = tail call ptr @register_dissector(ptr noundef nonnull @.str.86, ptr noundef nonnull @dissect_websocket, i32 noundef %12)
  store ptr %13, ptr @websocket_handle, align 8
  %14 = load i32, ptr @proto_websocket, align 4
  %15 = tail call ptr @prefs_register_protocol(i32 noundef %14, ptr noundef null)
  tail call void @prefs_register_enum_preference(ptr noundef %15, ptr noundef nonnull @.str.94, ptr noundef nonnull @.str.95, ptr noundef nonnull @.str.96, ptr noundef nonnull @pref_text_type, ptr noundef nonnull @proto_register_websocket.text_types, i1 noundef zeroext false)
  tail call void @prefs_register_bool_preference(ptr noundef %15, ptr noundef nonnull @.str.97, ptr noundef nonnull @.str.98, ptr noundef null, ptr noundef nonnull @pref_decompress)
  tail call void @prefs_register_uint_preference(ptr noundef %15, ptr noundef nonnull @.str.99, ptr noundef nonnull @.str.100, ptr noundef nonnull @.str.101, i32 noundef 10, ptr noundef nonnull @pref_max_unmasked_len)
  ret void
}